; Function Attrs: mustprogress nounwind uwtable
define hidden noundef i32 @_ZN12JvmtiEnvBase21get_thread_state_baseEP7oopDescP10JavaThread(ptr noundef %0, ptr noundef %1) local_unnamed_addr #0 align 2 {
  %.not = icmp eq ptr %0, null
  br i1 %.not, label %5, label %3

3:                                                ; preds = %2
  %4 = tail call noundef i32 @_ZN16java_lang_Thread17get_thread_statusEP7oopDesc(ptr noundef nonnull %0) #18
  br label %5

5:                                                ; preds = %3, %2
  %.0 = phi i32 [ %4, %3 ], [ 0, %2 ]
  %.not16 = icmp eq ptr %1, null
  br i1 %.not16, label %29, label %6

6:                                                ; preds = %5
  %7 = getelementptr inbounds i8, ptr %1, i64 1092
  %8 = load volatile i32, ptr %7, align 4
  %9 = getelementptr inbounds i8, ptr %1, i64 1138
  %10 = load volatile i8, ptr %9, align 2
  %11 = trunc i8 %10 to i1
  br i1 %11, label %22, label %12

12:                                               ; preds = %6
  %13 = tail call noundef ptr @_ZNK10JavaThread13jvmti_vthreadEv(ptr noundef nonnull align 8 dereferenceable(1800) %1) #18
  %14 = icmp eq ptr %13, null
  br i1 %14, label %18, label %15

15:                                               ; preds = %12
  %16 = tail call noundef ptr @_ZNK10JavaThread13jvmti_vthreadEv(ptr noundef nonnull align 8 dereferenceable(1800) %1) #18
  %17 = icmp eq ptr %16, %0
  br i1 %17, label %18, label %24

18:                                               ; preds = %15, %12
  %19 = getelementptr inbounds i8, ptr %1, i64 1513
  %20 = load volatile i8, ptr %19, align 1
  %21 = trunc i8 %20 to i1
  br i1 %21, label %22, label %24

22:                                               ; preds = %18, %6
  %23 = or i32 %.0, 1048576
  br label %24

24:                                               ; preds = %22, %18, %15
  %.1 = phi i32 [ %23, %22 ], [ %.0, %18 ], [ %.0, %15 ]
  %25 = icmp eq i32 %8, 4
  %26 = or i32 %.1, 4194304
  %spec.select = select i1 %25, i32 %26, i32 %.1
  %27 = tail call noundef zeroext i1 @_ZN10JavaThread14is_interruptedEb(ptr noundef nonnull align 8 dereferenceable(1800) %1, i1 noundef zeroext false) #18
  %28 = or i32 %spec.select, 2097152
  %spec.select17 = select i1 %27, i32 %28, i32 %spec.select
  br label %29

29:                                               ; preds = %24, %5
  %.3 = phi i32 [ %.0, %5 ], [ %spec.select17, %24 ]
  ret i32 %.3
}